; Function Attrs: mustprogress uwtable
define internal void @"_ZN32pxrInternal_v0_24__pxrReserved__13TfFunctionRefIFNS_17SdfPathExpressionERKNS1_19ExpressionReferenceEEE9_InvokeFnIZL10TestBasicsvE3$_0EES1_PKvS4_"(ptr dead_on_unwind noalias writable sret(%"class.pxrInternal_v0_24__pxrReserved__::SdfPathExpression") align 8 %0, ptr nocapture noundef readonly %1, ptr noundef nonnull align 8 dereferenceable(40) %2) #9 align 2 {
  tail call void @llvm.experimental.noalias.scope.decl(metadata !179)
  %4 = getelementptr inbounds nuw i8, ptr %2, i64 8
  %5 = tail call noundef i32 @_ZNKSt7__cxx1112basic_stringIcSt11char_traitsIcESaIcEE7compareEPKc(ptr noundef nonnull align 8 dereferenceable(32) %4, ptr noundef nonnull @.str.238) #24, !noalias !179
  %6 = icmp eq i32 %5, 0
  br i1 %6, label %7, label %9

7:                                                ; preds = %3
  %8 = load ptr, ptr %1, align 8, !noalias !179
  tail call void @_ZN32pxrInternal_v0_24__pxrReserved__17SdfPathExpressionC2ERKS0_(ptr noundef nonnull align 8 dereferenceable(104) %0, ptr noundef nonnull align 8 dereferenceable(104) %8)
  br label %"_ZZL10TestBasicsvENK3$_0clERKN32pxrInternal_v0_24__pxrReserved__17SdfPathExpression19ExpressionReferenceE.exit"

9:                                                ; preds = %3
  %10 = tail call noundef i32 @_ZNKSt7__cxx1112basic_stringIcSt11char_traitsIcESaIcEE7compareEPKc(ptr noundef nonnull align 8 dereferenceable(32) %4, ptr noundef nonnull @.str.239) #24, !noalias !179
  %11 = icmp eq i32 %10, 0
  br i1 %11, label %12, label %15

12:                                               ; preds = %9
  %13 = getelementptr inbounds nuw i8, ptr %1, i64 8
  %14 = load ptr, ptr %13, align 8, !noalias !179
  tail call void @_ZN32pxrInternal_v0_24__pxrReserved__17SdfPathExpressionC2ERKS0_(ptr noundef nonnull align 8 dereferenceable(104) %0, ptr noundef nonnull align 8 dereferenceable(104) %14)
  br label %"_ZZL10TestBasicsvENK3$_0clERKN32pxrInternal_v0_24__pxrReserved__17SdfPathExpression19ExpressionReferenceE.exit"

15:                                               ; preds = %9
  %16 = tail call noundef i32 @_ZNKSt7__cxx1112basic_stringIcSt11char_traitsIcESaIcEE7compareEPKc(ptr noundef nonnull align 8 dereferenceable(32) %4, ptr noundef nonnull @.str.240) #24, !noalias !179
  %17 = icmp eq i32 %16, 0
  br i1 %17, label %18, label %21

18:                                               ; preds = %15
  %19 = getelementptr inbounds nuw i8, ptr %1, i64 16
  %20 = load ptr, ptr %19, align 8, !noalias !179
  tail call void @_ZN32pxrInternal_v0_24__pxrReserved__17SdfPathExpressionC2ERKS0_(ptr noundef nonnull align 8 dereferenceable(104) %0, ptr noundef nonnull align 8 dereferenceable(104) %20)
  br label %"_ZZL10TestBasicsvENK3$_0clERKN32pxrInternal_v0_24__pxrReserved__17SdfPathExpression19ExpressionReferenceE.exit"

21:                                               ; preds = %15
  %22 = getelementptr inbounds nuw i8, ptr %0, i64 72
  tail call void @llvm.memset.p0.i64(ptr noundef nonnull align 8 dereferenceable(104) %0, i8 0, i64 104, i1 false), !alias.scope !179
  tail call void @_ZNSt7__cxx1112basic_stringIcSt11char_traitsIcESaIcEEC1Ev(ptr noundef nonnull align 8 dereferenceable(32) %22) #24
  br label %"_ZZL10TestBasicsvENK3$_0clERKN32pxrInternal_v0_24__pxrReserved__17SdfPathExpression19ExpressionReferenceE.exit"

"_ZZL10TestBasicsvENK3$_0clERKN32pxrInternal_v0_24__pxrReserved__17SdfPathExpression19ExpressionReferenceE.exit": ; preds = %7, %12, %18, %21
  ret void
}